; ModuleID = 'bench/openmpi/original/plm_slurm_component.ll'
source_filename = "bench/openmpi/original/plm_slurm_component.ll"
target datalayout = "e-m:e-p270:32:32-p271:32:32-p272:64:64-i64:64-i128:128-f80:128-n8:16:32:64-S128"
target triple = "x86_64-pc-linux-gnu"

%struct.pmix_mca_base_component_2_1_0_t = type { i32, i32, i32, [16 x i8], i32, i32, i32, [32 x i8], i32, i32, i32, [64 x i8], i32, i32, i32, ptr, ptr, ptr, ptr, [32 x i8] }
%struct.pmix_mca_base_framework_t = type { ptr, ptr, ptr, ptr, ptr, ptr, i32, i32, ptr, ptr, i32, i32, %struct.pmix_list_t, %struct.pmix_list_t }
%struct.pmix_list_t = type { %struct.pmix_object_t, %struct.pmix_list_item_t, i64 }
%struct.pmix_object_t = type { %union.pthread_mutex_t, ptr, i32, %struct.pmix_tma }
%union.pthread_mutex_t = type { %struct.__pthread_mutex_s }
%struct.__pthread_mutex_s = type { i32, i32, i32, i32, i32, i16, i16, %struct.__pthread_internal_list }
%struct.__pthread_internal_list = type { ptr, ptr }
%struct.pmix_tma = type { ptr, ptr, ptr, ptr, ptr, ptr, ptr, ptr }
%struct.pmix_list_item_t = type { %struct.pmix_object_t, ptr, ptr, i32 }
%struct.pmix_output_desc_t = type { i8, i8, i32, i8, i32, ptr, ptr, i32, ptr, i32, i8, i8, i8, i8, ptr, i32, i32 }
%struct.prte_process_info_t = type { %struct.pmix_proc, %struct.pmix_proc, ptr, %struct.pmix_proc, i32, i32, i32, ptr, ptr, i32, i8, ptr, i16, ptr, ptr, i8, ptr, i8 }
%struct.pmix_proc = type { [256 x i8], i32 }
%struct.prte_plm_base_module_1_0_0_t = type { ptr, ptr, ptr, ptr, ptr, ptr, ptr, ptr, ptr }

@.str = private unnamed_addr constant [39 x i8] c"PRTE slurm plm MCA component version 0\00", align 1
@prte_mca_plm_slurm_component_version_string = local_unnamed_addr global ptr @.str, align 8
@prte_mca_plm_slurm_component = global { %struct.pmix_mca_base_component_2_1_0_t, ptr, i8, [7 x i8] } { %struct.pmix_mca_base_component_2_1_0_t { i32 2, i32 1, i32 0, [16 x i8] c"prte\00\00\00\00\00\00\00\00\00\00\00\00", i32 4, i32 0, i32 0, [32 x i8] c"plm\00\00\00\00\00\00\00\00\00\00\00\00\00\00\00\00\00\00\00\00\00\00\00\00\00\00\00\00\00", i32 2, i32 0, i32 0, [64 x i8] c"slurm\00\00\00\00\00\00\00\00\00\00\00\00\00\00\00\00\00\00\00\00\00\00\00\00\00\00\00\00\00\00\00\00\00\00\00\00\00\00\00\00\00\00\00\00\00\00\00\00\00\00\00\00\00\00\00\00\00\00\00", i32 4, i32 0, i32 0, ptr @plm_slurm_open, ptr @plm_slurm_close, ptr @prte_mca_plm_slurm_component_query, ptr @plm_slurm_register, [32 x i8] zeroinitializer }, ptr null, i8 0, [7 x i8] zeroinitializer }, align 8
@.str.1 = private unnamed_addr constant [5 x i8] c"args\00", align 1
@.str.2 = private unnamed_addr constant [25 x i8] c"Custom arguments to srun\00", align 1
@.str.3 = private unnamed_addr constant [12 x i8] c"SLURM_JOBID\00", align 1
@prte_plm_base_framework = external local_unnamed_addr global %struct.pmix_mca_base_framework_t, align 8
@pmix_output_info = external local_unnamed_addr global [0 x %struct.pmix_output_desc_t], align 8
@.str.4 = private unnamed_addr constant [38 x i8] c"%s plm:slurm: available for selection\00", align 1
@prte_process_info = external global %struct.prte_process_info_t, align 8
@.str.5 = private unnamed_addr constant [15 x i8] c"srun --version\00", align 1
@.str.6 = private unnamed_addr constant [2 x i8] c"r\00", align 1
@prte_plm_slurm_module = external global %struct.prte_plm_base_module_1_0_0_t, align 8

; Function Attrs: mustprogress nofree norecurse nosync nounwind willreturn memory(none) uwtable
define internal noundef i32 @plm_slurm_open() #0 {
  ret i32 0
}

; Function Attrs: mustprogress nofree norecurse nosync nounwind willreturn memory(none) uwtable
define internal noundef i32 @plm_slurm_close() #0 {
  ret i32 0
}

; Function Attrs: nounwind uwtable
define internal range(i32 -1, 1) i32 @prte_mca_plm_slurm_component_query(ptr noundef writeonly captures(none) initializes((0, 8)) %0, ptr noundef writeonly captures(none) %1) #1 {
  %3 = alloca [1024 x i8], align 16
  %4 = alloca ptr, align 8
  call void @llvm.lifetime.start.p0(i64 1024, ptr nonnull %3) #7
  call void @llvm.lifetime.start.p0(i64 8, ptr nonnull %4) #7
  %5 = tail call ptr @getenv(ptr noundef nonnull @.str.3) #7
  %.not = icmp eq ptr %5, null
  br i1 %.not, label %35, label %6

6:                                                ; preds = %2
  store i32 75, ptr %1, align 4, !tbaa !3
  %7 = load i32, ptr getelementptr inbounds nuw (i8, ptr @prte_plm_base_framework, i64 76), align 4, !tbaa !7
  %or.cond = icmp ult i32 %7, 64
  br i1 %or.cond, label %8, label %15

8:                                                ; preds = %6
  %9 = zext nneg i32 %7 to i64
  %10 = getelementptr inbounds nuw [0 x %struct.pmix_output_desc_t], ptr @pmix_output_info, i64 0, i64 %9, i32 2
  %11 = load i32, ptr %10, align 4, !tbaa !19
  %12 = icmp sgt i32 %11, 0
  br i1 %12, label %13, label %15

13:                                               ; preds = %8
  %14 = tail call ptr @prte_util_print_name_args(ptr noundef nonnull @prte_process_info) #7
  tail call void (i32, ptr, ...) @pmix_output(i32 noundef %7, ptr noundef nonnull @.str.4, ptr noundef %14) #7
  br label %15

15:                                               ; preds = %13, %8, %6
  %16 = tail call noalias ptr @popen(ptr noundef nonnull @.str.5, ptr noundef nonnull @.str.6)
  %17 = icmp eq ptr %16, null
  br i1 %17, label %35, label %18

18:                                               ; preds = %15
  %19 = call ptr @fgets(ptr noundef nonnull %3, i32 noundef 1024, ptr noundef nonnull %16)
  %20 = icmp eq ptr %19, null
  %21 = call i32 @pclose(ptr noundef nonnull %16)
  br i1 %20, label %35, label %22

22:                                               ; preds = %18
  %23 = getelementptr inbounds nuw i8, ptr %3, i64 6
  %24 = call i64 @strtol(ptr noundef nonnull %23, ptr noundef nonnull %4, i32 noundef 10) #7
  %25 = trunc i64 %24 to i32
  %26 = load ptr, ptr %4, align 8, !tbaa !22
  %27 = getelementptr inbounds nuw i8, ptr %26, i64 1
  %28 = call i64 @strtol(ptr noundef nonnull captures(none) %27, ptr noundef null, i32 noundef 10) #7
  %29 = trunc i64 %28 to i32
  %30 = icmp slt i32 %25, 23
  br i1 %30, label %34, label %31

31:                                               ; preds = %22
  %.not16 = icmp eq i32 %25, 23
  br i1 %.not16, label %32, label %34

32:                                               ; preds = %31
  %33 = icmp slt i32 %29, 11
  %. = zext i1 %33 to i8
  br label %34

34:                                               ; preds = %32, %31, %22
  %.sink = phi i8 [ 1, %22 ], [ 0, %31 ], [ %., %32 ]
  store i8 %.sink, ptr getelementptr inbounds nuw (i8, ptr @prte_mca_plm_slurm_component, i64 232), align 8, !tbaa !23
  br label %35

35:                                               ; preds = %2, %18, %15, %34
  %.sink17 = phi ptr [ @prte_plm_slurm_module, %34 ], [ null, %15 ], [ null, %18 ], [ null, %2 ]
  %.0 = phi i32 [ 0, %34 ], [ -1, %15 ], [ -1, %18 ], [ -1, %2 ]
  store ptr %.sink17, ptr %0, align 8, !tbaa !26
  call void @llvm.lifetime.end.p0(i64 8, ptr nonnull %4) #7
  call void @llvm.lifetime.end.p0(i64 1024, ptr nonnull %3) #7
  ret i32 %.0
}

; Function Attrs: nounwind uwtable
define internal noundef i32 @plm_slurm_register() #1 {
  store ptr null, ptr getelementptr inbounds nuw (i8, ptr @prte_mca_plm_slurm_component, i64 224), align 8, !tbaa !28
  %1 = tail call i32 @pmix_mca_base_component_var_register(ptr noundef nonnull @prte_mca_plm_slurm_component, ptr noundef nonnull @.str.1, ptr noundef nonnull @.str.2, i32 noundef 5, ptr noundef nonnull getelementptr inbounds nuw (i8, ptr @prte_mca_plm_slurm_component, i64 224)) #7
  ret i32 0
}

; Function Attrs: mustprogress nocallback nofree nosync nounwind willreturn memory(argmem: readwrite)
declare void @llvm.lifetime.start.p0(i64 immarg, ptr captures(none)) #2

declare i32 @pmix_mca_base_component_var_register(ptr noundef, ptr noundef, ptr noundef, i32 noundef, ptr noundef) local_unnamed_addr #3

; Function Attrs: mustprogress nocallback nofree nosync nounwind willreturn memory(argmem: readwrite)
declare void @llvm.lifetime.end.p0(i64 immarg, ptr captures(none)) #2

; Function Attrs: nofree nounwind memory(read)
declare noundef ptr @getenv(ptr noundef captures(none)) local_unnamed_addr #4

declare void @pmix_output(i32 noundef, ptr noundef, ...) local_unnamed_addr #3

declare ptr @prte_util_print_name_args(ptr noundef) local_unnamed_addr #3

; Function Attrs: nofree nounwind
declare noalias noundef ptr @popen(ptr noundef readonly captures(none), ptr noundef readonly captures(none)) local_unnamed_addr #5

; Function Attrs: nofree nounwind
declare noundef ptr @fgets(ptr noundef, i32 noundef, ptr noundef captures(none)) local_unnamed_addr #5

; Function Attrs: nofree nounwind
declare noundef i32 @pclose(ptr noundef captures(none)) local_unnamed_addr #5

; Function Attrs: mustprogress nofree nounwind willreturn
declare i64 @strtol(ptr noundef readonly, ptr noundef captures(none), i32 noundef) local_unnamed_addr #6


!llvm.module.flags = !{!0, !1, !2}

!0 = !{i32 1, !"wchar_size", i32 4}
!1 = !{i32 8, !"PIC Level", i32 2}
!2 = !{i32 7, !"uwtable", i32 2}
!3 = !{!4, !4, i64 0}
!4 = !{!"int", !5, i64 0}
!5 = !{!"omnipotent char", !6, i64 0}
!6 = !{!"Simple C/C++ TBAA"}
!7 = !{!8, !4, i64 76}
!8 = !{!"pmix_mca_base_framework_t", !9, i64 0, !9, i64 8, !9, i64 16, !10, i64 24, !10, i64 32, !10, i64 40, !4, i64 48, !4, i64 52, !11, i64 56, !9, i64 64, !4, i64 72, !4, i64 76, !12, i64 80, !12, i64 352}
!9 = !{!"p1 omnipotent char", !10, i64 0}
!10 = !{!"any pointer", !5, i64 0}
!11 = !{!"p2 _ZTS31pmix_mca_base_component_2_1_0_t", !10, i64 0}
!12 = !{!"pmix_list_t", !13, i64 0, !16, i64 120, !18, i64 264}
!13 = !{!"pmix_object_t", !5, i64 0, !14, i64 40, !4, i64 48, !15, i64 56}
!14 = !{!"p1 _ZTS12pmix_class_t", !10, i64 0}
!15 = !{!"pmix_tma", !10, i64 0, !10, i64 8, !10, i64 16, !10, i64 24, !10, i64 32, !10, i64 40, !10, i64 48, !10, i64 56}
!16 = !{!"pmix_list_item_t", !13, i64 0, !17, i64 120, !17, i64 128, !4, i64 136}
!17 = !{!"p1 _ZTS16pmix_list_item_t", !10, i64 0}
!18 = !{!"long", !5, i64 0}
!19 = !{!20, !4, i64 4}
!20 = !{!"", !21, i64 0, !21, i64 1, !4, i64 4, !21, i64 8, !4, i64 12, !9, i64 16, !9, i64 24, !4, i64 32, !9, i64 40, !4, i64 48, !21, i64 52, !21, i64 53, !21, i64 54, !21, i64 55, !9, i64 56, !4, i64 64, !4, i64 68}
!21 = !{!"_Bool", !5, i64 0}
!22 = !{!9, !9, i64 0}
!23 = !{!24, !21, i64 232}
!24 = !{!"prte_mca_plm_slurm_component_t", !25, i64 0, !9, i64 224, !21, i64 232}
!25 = !{!"pmix_mca_base_component_2_1_0_t", !4, i64 0, !4, i64 4, !4, i64 8, !5, i64 12, !4, i64 28, !4, i64 32, !4, i64 36, !5, i64 40, !4, i64 72, !4, i64 76, !4, i64 80, !5, i64 84, !4, i64 148, !4, i64 152, !4, i64 156, !10, i64 160, !10, i64 168, !10, i64 176, !10, i64 184, !5, i64 192}
!26 = !{!27, !27, i64 0}
!27 = !{!"p1 _ZTS28pmix_mca_base_module_2_0_0_t", !10, i64 0}
!28 = !{!24, !9, i64 224}
